; Function Attrs: mustprogress uwtable
define internal void @_ZNK11flatbuffers12_GLOBAL__N_116FBSCodeGenerator12LanguageNameB5cxx11Ev(ptr noalias sret(%"class.std::__cxx11::basic_string") align 8 %agg.result, ptr nocapture nonnull readnone align 8 %this) unnamed_addr #0 align 2 personality ptr @__gxx_personality_v0 {
entry:
  %ref.tmp = alloca %"class.std::allocator", align 1
  call void @_ZNSaIcEC1Ev(ptr noundef nonnull align 1 dereferenceable(1) %ref.tmp) #22
  %call.i1 = invoke noundef ptr @_ZNSt7__cxx1112basic_stringIcSt11char_traitsIcESaIcEE13_M_local_dataEv(ptr noundef nonnull align 8 dereferenceable(32) %agg.result)
          to label %call.i.noexc unwind label %lpad

call.i.noexc:                                     ; preds = %entry
  invoke void @_ZNSt7__cxx1112basic_stringIcSt11char_traitsIcESaIcEE12_Alloc_hiderC1EPcRKS3_(ptr noundef nonnull align 8 dereferenceable(8) %agg.result, ptr noundef %call.i1, ptr noundef nonnull align 1 dereferenceable(1) %ref.tmp)
          to label %.noexc unwind label %lpad

.noexc:                                           ; preds = %call.i.noexc
  invoke void @_ZNSt7__cxx1112basic_stringIcSt11char_traitsIcESaIcEE12_M_constructIPKcEEvT_S8_St20forward_iterator_tag(ptr noundef nonnull align 8 dereferenceable(32) %agg.result, ptr noundef nonnull @.str.52, ptr noundef nonnull getelementptr inbounds ([6 x i8], ptr @.str.52, i64 0, i64 5))
          to label %invoke.cont unwind label %lpad.i

lpad.i:                                           ; preds = %.noexc
  %0 = landingpad { ptr, i32 }
          cleanup
  call void @_ZNSaIcED2Ev(ptr noundef nonnull align 1 dereferenceable(1) %agg.result) #22
  br label %lpad.body

invoke.cont:                                      ; preds = %.noexc
  call void @_ZNSaIcED1Ev(ptr noundef nonnull align 1 dereferenceable(1) %ref.tmp) #22
  ret void

lpad:                                             ; preds = %call.i.noexc, %entry
  %1 = landingpad { ptr, i32 }
          cleanup
  br label %lpad.body

lpad.body:                                        ; preds = %lpad.i, %lpad
  %eh.lpad-body = phi { ptr, i32 } [ %1, %lpad ], [ %0, %lpad.i ]
  call void @_ZNSaIcED1Ev(ptr noundef nonnull align 1 dereferenceable(1) %ref.tmp) #22
  resume { ptr, i32 } %eh.lpad-body
}